target datalayout = "e-m:e-p270:32:32-p271:32:32-p272:64:64-i64:64-i128:128-f80:128-n8:16:32:64-S128"
target triple = "x86_64-pc-linux-gnu"

%"class.Imath_3_2::Box" = type { %"class.Imath_3_2::Vec2.0", %"class.Imath_3_2::Vec2.0" }
%"class.Imath_3_2::Vec2.0" = type { i32, i32 }

; Function Attrs: inlinehint mustprogress nounwind uwtable
define linkonce_odr hidden void @_ZN9Imath_3_24Vec2IiEC2ERKS1_(ptr noundef nonnull align 4 dereferenceable(8) %0, ptr noundef nonnull align 4 dereferenceable(8) %1) unnamed_addr #6 comdat align 2 {
  %3 = alloca ptr, align 8
  %4 = alloca ptr, align 8
  store ptr %0, ptr %3, align 8, !tbaa !35
  store ptr %1, ptr %4, align 8, !tbaa !35
  %5 = load ptr, ptr %3, align 8
  %6 = getelementptr inbounds nuw %"class.Imath_3_2::Vec2.0", ptr %5, i32 0, i32 0
  %7 = load ptr, ptr %4, align 8, !tbaa !35
  %8 = getelementptr inbounds nuw %"class.Imath_3_2::Vec2.0", ptr %7, i32 0, i32 0
  %9 = load i32, ptr %8, align 4, !tbaa !37
  store i32 %9, ptr %6, align 4, !tbaa !37
  %10 = getelementptr inbounds nuw %"class.Imath_3_2::Vec2.0", ptr %5, i32 0, i32 1
  %11 = load ptr, ptr %4, align 8, !tbaa !35
  %12 = getelementptr inbounds nuw %"class.Imath_3_2::Vec2.0", ptr %11, i32 0, i32 1
  %13 = load i32, ptr %12, align 4, !tbaa !39
  store i32 %13, ptr %10, align 4, !tbaa !39
  ret void
}

; Function Attrs: inlinehint mustprogress nounwind uwtable
define linkonce_odr hidden void @_ZN9Imath_3_23BoxINS_4Vec2IiEEEC2ERKS3_(ptr noundef nonnull align 4 dereferenceable(16) %0, ptr noundef nonnull align 4 dereferenceable(16) %1) unnamed_addr #6 comdat align 2 {
  %3 = alloca ptr, align 8
  %4 = alloca ptr, align 8
  store ptr %0, ptr %3, align 8, !tbaa !40
  store ptr %1, ptr %4, align 8, !tbaa !40
  %5 = load ptr, ptr %3, align 8
  %6 = getelementptr inbounds nuw %"class.Imath_3_2::Box", ptr %5, i32 0, i32 0
  %7 = load ptr, ptr %4, align 8, !tbaa !40
  %8 = getelementptr inbounds nuw %"class.Imath_3_2::Box", ptr %7, i32 0, i32 0
  call void @_ZN9Imath_3_24Vec2IiEC2ERKS1_(ptr noundef nonnull align 4 dereferenceable(8) %6, ptr noundef nonnull align 4 dereferenceable(8) %8) #3
  %9 = getelementptr inbounds nuw %"class.Imath_3_2::Box", ptr %5, i32 0, i32 1
  %10 = load ptr, ptr %4, align 8, !tbaa !40
  %11 = getelementptr inbounds nuw %"class.Imath_3_2::Box", ptr %10, i32 0, i32 1
  call void @_ZN9Imath_3_24Vec2IiEC2ERKS1_(ptr noundef nonnull align 4 dereferenceable(8) %9, ptr noundef nonnull align 4 dereferenceable(8) %11) #3
  ret void
}

; Function Attrs: inlinehint mustprogress nounwind uwtable
define internal noundef ptr @_ZN12_GLOBAL__N_16headerEPK9ImfHeader(ptr noundef %0) #6 {
  %2 = alloca ptr, align 8
  store ptr %0, ptr %2, align 8, !tbaa !33
  %3 = load ptr, ptr %2, align 8, !tbaa !33
  ret ptr %3
}

; Function Attrs: mustprogress uwtable
define void @ImfHeaderDataWindow(ptr noundef %0, ptr noundef %1, ptr noundef %2, ptr noundef %3, ptr noundef %4) #7 {
  %6 = alloca ptr, align 8
  %7 = alloca ptr, align 8
  %8 = alloca ptr, align 8
  %9 = alloca ptr, align 8
  %10 = alloca ptr, align 8
  %11 = alloca %"class.Imath_3_2::Box", align 4
  store ptr %0, ptr %6, align 8, !tbaa !33
  store ptr %1, ptr %7, align 8, !tbaa !42
  store ptr %2, ptr %8, align 8, !tbaa !42
  store ptr %3, ptr %9, align 8, !tbaa !42
  store ptr %4, ptr %10, align 8, !tbaa !42
  call void @llvm.lifetime.start.p0(i64 16, ptr %11) #3
  %12 = load ptr, ptr %6, align 8, !tbaa !33
  %13 = call noundef ptr @_ZN12_GLOBAL__N_16headerEPK9ImfHeader(ptr noundef %12)
  %14 = call noundef nonnull align 4 dereferenceable(16) ptr @_ZNK7Imf_3_46Header10dataWindowEv(ptr noundef nonnull align 8 dereferenceable(49) %13)
  call void @_ZN9Imath_3_23BoxINS_4Vec2IiEEEC2ERKS3_(ptr noundef nonnull align 4 dereferenceable(16) %11, ptr noundef nonnull align 4 dereferenceable(16) %14) #3
  %15 = getelementptr inbounds nuw %"class.Imath_3_2::Box", ptr %11, i32 0, i32 0
  %16 = getelementptr inbounds nuw %"class.Imath_3_2::Vec2.0", ptr %15, i32 0, i32 0
  %17 = load i32, ptr %16, align 4, !tbaa !44
  %18 = load ptr, ptr %7, align 8, !tbaa !42
  store i32 %17, ptr %18, align 4, !tbaa !16
  %19 = getelementptr inbounds nuw %"class.Imath_3_2::Box", ptr %11, i32 0, i32 0
  %20 = getelementptr inbounds nuw %"class.Imath_3_2::Vec2.0", ptr %19, i32 0, i32 1
  %21 = load i32, ptr %20, align 4, !tbaa !46
  %22 = load ptr, ptr %8, align 8, !tbaa !42
  store i32 %21, ptr %22, align 4, !tbaa !16
  %23 = getelementptr inbounds nuw %"class.Imath_3_2::Box", ptr %11, i32 0, i32 1
  %24 = getelementptr inbounds nuw %"class.Imath_3_2::Vec2.0", ptr %23, i32 0, i32 0
  %25 = load i32, ptr %24, align 4, !tbaa !47
  %26 = load ptr, ptr %9, align 8, !tbaa !42
  store i32 %25, ptr %26, align 4, !tbaa !16
  %27 = getelementptr inbounds nuw %"class.Imath_3_2::Box", ptr %11, i32 0, i32 1
  %28 = getelementptr inbounds nuw %"class.Imath_3_2::Vec2.0", ptr %27, i32 0, i32 1
  %29 = load i32, ptr %28, align 4, !tbaa !48
  %30 = load ptr, ptr %10, align 8, !tbaa !42
  store i32 %29, ptr %30, align 4, !tbaa !16
  call void @llvm.lifetime.end.p0(i64 16, ptr %11) #3
  ret void
}