; Function Attrs: mustprogress uwtable
define void @ImfHeaderDataWindow(ptr noundef nonnull %0, ptr noundef writeonly captures(none) initializes((0, 4)) %1, ptr noundef writeonly captures(none) initializes((0, 4)) %2, ptr noundef writeonly captures(none) initializes((0, 4)) %3, ptr noundef writeonly captures(none) initializes((0, 4)) %4) local_unnamed_addr #8 {
  %6 = tail call noundef nonnull align 4 dereferenceable(16) ptr @_ZNK7Imf_3_46Header10dataWindowEv(ptr noundef nonnull align 8 dereferenceable(49) %0)
  %7 = load i32, ptr %6, align 4, !tbaa !24
  %8 = getelementptr inbounds nuw i8, ptr %6, i64 4
  %9 = load i32, ptr %8, align 4, !tbaa !27
  %10 = getelementptr inbounds nuw i8, ptr %6, i64 8
  %11 = load i32, ptr %10, align 4, !tbaa !24
  %12 = getelementptr inbounds nuw i8, ptr %6, i64 12
  %13 = load i32, ptr %12, align 4, !tbaa !27
  store i32 %7, ptr %1, align 4, !tbaa !28
  store i32 %9, ptr %2, align 4, !tbaa !28
  store i32 %11, ptr %3, align 4, !tbaa !28
  store i32 %13, ptr %4, align 4, !tbaa !28
  ret void
}